target datalayout = "e-m:e-p270:32:32-p271:32:32-p272:64:64-i64:64-i128:128-f80:128-n8:16:32:64-S128"
target triple = "x86_64-unknown-linux-gnu"

%class.symbol = type { ptr }
%class.opt_stream_buffer = type { ptr, i32, i32 }
%class.wcnf = type { ptr, ptr, ptr, ptr }
%class.obj_ref = type { ptr, ptr }
%class.arith_util = type { ptr, ptr }
%"class.std::__cxx11::basic_string" = type { %"struct.std::__cxx11::basic_string<char>::_Alloc_hider", i64, %union.anon }
%"struct.std::__cxx11::basic_string<char>::_Alloc_hider" = type { ptr }
%union.anon = type { i64, [8 x i8] }
%"class.opt::context" = type { %class.opt_wrapper, %"class.opt::pareto_callback", %"class.opt::maxsat_context", double, %"struct.opt::on_model_t", %"class.std::function", i8, %class.arith_util, %class.bv_util, %class.ref_vector, %class.ref.0, %class.ref.1, %class.ref.1, %class.scoped_ptr, i8, %class.scoped_ptr.2, %class.ref_vector_core.3, i32, %class.params_ref, %"class.opt::optsmt", %class.map, %"class.opt::context::scoped_state", %class.vector.22, %class.ref.13, %class.ref, %class.ref.23, %class.ref_vector_core.3, i32, [4 x i8], %class.obj_map, %class.obj_map.26, %class.ref_vector.31, %class.ref_vector, %class.ref.36, i8, i8, i8, i8, i8, i8, %class.symbol, %class.symbol, %class.svector.14, %"class.std::__cxx11::basic_string" }
%class.opt_wrapper = type { %class.check_sat_result }
%class.check_sat_result = type { ptr, ptr, %class.ref_vector, %class.obj_ref, i32, i32, %class.ref, double }
%"class.opt::pareto_callback" = type { ptr }
%"class.opt::maxsat_context" = type { ptr }
%"struct.opt::on_model_t" = type { ptr, ptr, ptr, ptr }
%"class.std::function" = type { %"class.std::_Function_base", ptr }
%"class.std::_Function_base" = type { %"union.std::_Any_data", ptr }
%"union.std::_Any_data" = type { %"union.std::_Nocopy_types" }
%"union.std::_Nocopy_types" = type { { i64, i64 } }
%class.bv_util = type { %class.bv_recognizers, ptr, ptr }
%class.bv_recognizers = type { i32 }
%class.ref.0 = type { ptr }
%class.ref.1 = type { ptr }
%class.scoped_ptr = type { ptr }
%class.scoped_ptr.2 = type { ptr }
%class.params_ref = type { ptr }
%"class.opt::optsmt" = type { ptr, ptr, ptr, %class.vector.6, %class.vector.6, %class.ref_vector.7, %class.ref_vector, %class.svector, %class.symbol, %class.ref.13, %class.ref.13, %class.svector.14, %class.ref_vector_core.3 }
%class.vector.6 = type { ptr }
%class.ref_vector.7 = type { %class.ref_vector_core.8 }
%class.ref_vector_core.8 = type { %class.ref_manager_wrapper.9, %class.ptr_vector.10 }
%class.ref_manager_wrapper.9 = type { ptr }
%class.ptr_vector.10 = type { %class.vector.11 }
%class.vector.11 = type { ptr }
%class.svector = type { %class.vector.12 }
%class.vector.12 = type { ptr }
%class.map = type { %class.table2map }
%class.table2map = type { %class.core_hashtable }
%class.core_hashtable = type <{ ptr, i32, i32, i32, [4 x i8] }>
%"class.opt::context::scoped_state" = type { ptr, %class.arith_util, %class.bv_util, %class.svector.16, %class.svector.16, %class.svector.16, %class.svector.16, %class.svector.16, %class.map.18, %class.ref_vector, %class.ref_vector, %class.vector.22 }
%class.svector.16 = type { %class.vector.17 }
%class.vector.17 = type { ptr }
%class.map.18 = type { %class.table2map.19 }
%class.table2map.19 = type { %class.core_hashtable.20 }
%class.core_hashtable.20 = type <{ ptr, i32, i32, i32, [4 x i8] }>
%class.vector.22 = type { ptr }
%class.ref.13 = type { ptr }
%class.ref = type { ptr }
%class.ref.23 = type { ptr }
%class.ref_vector_core.3 = type { %class.ptr_vector.4 }
%class.ptr_vector.4 = type { %class.vector.5 }
%class.vector.5 = type { ptr }
%class.obj_map = type { %class.core_hashtable.24 }
%class.core_hashtable.24 = type <{ ptr, i32, i32, i32, [4 x i8] }>
%class.obj_map.26 = type { %class.core_hashtable.27 }
%class.core_hashtable.27 = type <{ ptr, i32, i32, i32, [4 x i8] }>
%class.ref_vector.31 = type { %class.ref_vector_core.32 }
%class.ref_vector_core.32 = type { %class.ref_manager_wrapper.33, %class.ptr_vector.34 }
%class.ref_manager_wrapper.33 = type { ptr }
%class.ptr_vector.34 = type { %class.vector.35 }
%class.vector.35 = type { ptr }
%class.ref_vector = type { %class.ref_vector_core }
%class.ref_vector_core = type { %class.ref_manager_wrapper, %class.ptr_vector }
%class.ref_manager_wrapper = type { ptr }
%class.ptr_vector = type { %class.vector }
%class.vector = type { ptr }
%class.ref.36 = type { ptr }
%class.svector.14 = type { %class.vector.15 }
%class.vector.15 = type { ptr }

; Function Attrs: mustprogress nounwind uwtable
define linkonce_odr hidden void @_ZN3opt7context11set_clausalEb(ptr noundef nonnull align 8 dereferenceable(792) %this, i1 noundef zeroext %f) #4 comdat align 2 {
entry:
  %this.addr = alloca ptr, align 8
  %f.addr = alloca i8, align 1
  store ptr %this, ptr %this.addr, align 8
  %frombool = zext i1 %f to i8
  store i8 %frombool, ptr %f.addr, align 1
  %this1 = load ptr, ptr %this.addr, align 8
  %0 = load i8, ptr %f.addr, align 1
  %tobool = trunc i8 %0 to i1
  %m_is_clausal = getelementptr inbounds %"class.opt::context", ptr %this1, i32 0, i32 36
  %frombool2 = zext i1 %tobool to i8
  store i8 %frombool2, ptr %m_is_clausal, align 2
  ret void
}

; Function Attrs: mustprogress uwtable
define linkonce_odr hidden void @_ZN4wcnfC2ERN3opt7contextER17opt_stream_bufferR7svectorIjjE(ptr noundef nonnull align 8 dereferenceable(32) %this, ptr noundef nonnull align 8 dereferenceable(792) %opt, ptr noundef nonnull align 8 dereferenceable(16) %in, ptr noundef nonnull align 8 dereferenceable(8) %h) unnamed_addr #5 comdat align 2 {
entry:
  %this.addr = alloca ptr, align 8
  %opt.addr = alloca ptr, align 8
  %in.addr = alloca ptr, align 8
  %h.addr = alloca ptr, align 8
  store ptr %this, ptr %this.addr, align 8
  store ptr %opt, ptr %opt.addr, align 8
  store ptr %in, ptr %in.addr, align 8
  store ptr %h, ptr %h.addr, align 8
  %this1 = load ptr, ptr %this.addr, align 8
  %opt2 = getelementptr inbounds %class.wcnf, ptr %this1, i32 0, i32 0
  %0 = load ptr, ptr %opt.addr, align 8
  store ptr %0, ptr %opt2, align 8
  %m = getelementptr inbounds %class.wcnf, ptr %this1, i32 0, i32 1
  %1 = load ptr, ptr %opt.addr, align 8
  %vtable = load ptr, ptr %1, align 8
  %vfn = getelementptr inbounds ptr, ptr %vtable, i64 9
  %2 = load ptr, ptr %vfn, align 8
  %call = call noundef nonnull align 8 dereferenceable(976) ptr %2(ptr noundef nonnull align 8 dereferenceable(792) %1)
  store ptr %call, ptr %m, align 8
  %in3 = getelementptr inbounds %class.wcnf, ptr %this1, i32 0, i32 2
  %3 = load ptr, ptr %in.addr, align 8
  store ptr %3, ptr %in3, align 8
  %m_handles = getelementptr inbounds %class.wcnf, ptr %this1, i32 0, i32 3
  %4 = load ptr, ptr %h.addr, align 8
  store ptr %4, ptr %m_handles, align 8
  %5 = load ptr, ptr %opt.addr, align 8
  call void @_ZN3opt7context11set_clausalEb(ptr noundef nonnull align 8 dereferenceable(792) %5, i1 noundef zeroext true)
  ret void
}

; Function Attrs: mustprogress uwtable
define linkonce_odr hidden void @_ZN17opt_stream_bufferC2ERSi(ptr noundef nonnull align 8 dereferenceable(16) %this, ptr noundef nonnull align 8 dereferenceable(16) %s) unnamed_addr #5 comdat align 2 {
entry:
  %this.addr = alloca ptr, align 8
  %s.addr = alloca ptr, align 8
  store ptr %this, ptr %this.addr, align 8
  store ptr %s, ptr %s.addr, align 8
  %this1 = load ptr, ptr %this.addr, align 8
  %m_stream = getelementptr inbounds %class.opt_stream_buffer, ptr %this1, i32 0, i32 0
  %0 = load ptr, ptr %s.addr, align 8
  store ptr %0, ptr %m_stream, align 8
  %m_line = getelementptr inbounds %class.opt_stream_buffer, ptr %this1, i32 0, i32 2
  store i32 0, ptr %m_line, align 4
  %m_stream2 = getelementptr inbounds %class.opt_stream_buffer, ptr %this1, i32 0, i32 0
  %1 = load ptr, ptr %m_stream2, align 8
  %call = call noundef i32 @_ZNSi3getEv(ptr noundef nonnull align 8 dereferenceable(16) %1)
  %m_val = getelementptr inbounds %class.opt_stream_buffer, ptr %this1, i32 0, i32 1
  store i32 %call, ptr %m_val, align 8
  ret void
}

; Function Attrs: mustprogress uwtable
define hidden void @_Z10parse_wcnfRN3opt7contextERSiR7svectorIjjE(ptr noundef nonnull align 8 dereferenceable(792) %opt, ptr noundef nonnull align 8 dereferenceable(16) %is, ptr noundef nonnull align 8 dereferenceable(8) %h) #5 {
entry:
  %opt.addr = alloca ptr, align 8
  %is.addr = alloca ptr, align 8
  %h.addr = alloca ptr, align 8
  %_is = alloca %class.opt_stream_buffer, align 8
  %w = alloca %class.wcnf, align 8
  store ptr %opt, ptr %opt.addr, align 8
  store ptr %is, ptr %is.addr, align 8
  store ptr %h, ptr %h.addr, align 8
  %0 = load ptr, ptr %is.addr, align 8
  call void @_ZN17opt_stream_bufferC2ERSi(ptr noundef nonnull align 8 dereferenceable(16) %_is, ptr noundef nonnull align 8 dereferenceable(16) %0)
  %1 = load ptr, ptr %opt.addr, align 8
  %2 = load ptr, ptr %h.addr, align 8
  call void @_ZN4wcnfC2ERN3opt7contextER17opt_stream_bufferR7svectorIjjE(ptr noundef nonnull align 8 dereferenceable(32) %w, ptr noundef nonnull align 8 dereferenceable(792) %1, ptr noundef nonnull align 8 dereferenceable(16) %_is, ptr noundef nonnull align 8 dereferenceable(8) %2)
  call void @_ZN4wcnf5parseEv(ptr noundef nonnull align 8 dereferenceable(32) %w)
  ret void
}