; Function Attrs: mustprogress uwtable
define hidden void @_Z10parse_wcnfRN3opt7contextERSiR7svectorIjjE(ptr noundef nonnull align 8 dereferenceable(792) %opt, ptr noundef nonnull align 8 dereferenceable(16) %is, ptr noundef nonnull align 8 dereferenceable(8) %h) local_unnamed_addr #3 {
entry:
  %_is = alloca %class.opt_stream_buffer, align 8
  %w = alloca %class.wcnf, align 8
  store ptr %is, ptr %_is, align 8
  %m_line.i = getelementptr inbounds i8, ptr %_is, i64 12
  store i32 0, ptr %m_line.i, align 4
  %call.i = tail call noundef i32 @_ZNSi3getEv(ptr noundef nonnull align 8 dereferenceable(16) %is)
  %m_val.i = getelementptr inbounds i8, ptr %_is, i64 8
  store i32 %call.i, ptr %m_val.i, align 8
  store ptr %opt, ptr %w, align 8
  %m.i = getelementptr inbounds i8, ptr %w, i64 8
  %vtable.i = load ptr, ptr %opt, align 8
  %vfn.i = getelementptr inbounds i8, ptr %vtable.i, i64 72
  %0 = load ptr, ptr %vfn.i, align 8
  %call.i1 = tail call noundef nonnull align 8 dereferenceable(976) ptr %0(ptr noundef nonnull align 8 dereferenceable(792) %opt)
  store ptr %call.i1, ptr %m.i, align 8
  %in3.i = getelementptr inbounds i8, ptr %w, i64 16
  store ptr %_is, ptr %in3.i, align 8
  %m_handles.i = getelementptr inbounds i8, ptr %w, i64 24
  store ptr %h, ptr %m_handles.i, align 8
  %m_is_clausal.i.i = getelementptr inbounds i8, ptr %opt, i64 730
  store i8 1, ptr %m_is_clausal.i.i, align 2
  call void @_ZN4wcnf5parseEv(ptr noundef nonnull align 8 dereferenceable(32) %w)
  ret void
}